Certificate:
    Data:
        Version: 3 (0x2)
        Serial Number:
            c0:c8:f8:64:91:18:43:52:f5:36:8b:46:1c:f1:a3:01
        Signature Algorithm: sha256WithRSAEncryption
        Issuer: CN=rasvpn
        Validity
            Not Before: Oct 22 09:33:35 2023 GMT
            Not After : Jan 24 09:33:35 2026 GMT
        Subject: CN=client
        Subject Public Key Info:
            Public Key Algorithm: rsaEncryption
                RSA Public-Key: (2048 bit)
                Modulus:
                    00:9f:73:a6:e8:48:a1:7b:da:b3:d3:84:7d:94:21:
                    b4:16:23:e0:3e:f4:56:8d:75:fa:6f:a1:5b:ee:3e:
                    1b:f5:af:21:95:21:0a:e4:07:8e:6c:62:24:c2:cb:
                    46:55:a3:ac:43:11:28:8b:a0:10:00:26:6b:23:75:
                    4d:df:5d:b2:83:9c:da:a9:fa:19:a8:1c:a8:e2:7d:
                    6f:14:d4:3d:0d:37:76:0b:25:65:36:3a:6f:95:c7:
                    57:f3:03:df:65:69:d7:d2:fa:cc:7c:35:98:f0:89:
                    46:f1:03:c2:d9:3a:e7:fb:a2:f7:a3:44:29:17:bf:
                    9e:07:f5:0f:24:67:c5:70:aa:53:d7:72:ca:c0:4c:
                    85:38:6c:a9:87:63:8b:0d:7f:2d:51:45:49:12:76:
                    96:04:5b:03:ff:e1:66:8c:26:8d:67:50:ea:cb:89:
                    44:88:78:ff:fd:35:77:0d:99:e2:8c:34:a5:c4:c7:
                    22:d3:f8:06:ba:70:dc:30:12:47:34:e2:e1:b6:f4:
                    ce:60:e6:78:c5:a5:b3:04:2d:f3:83:02:25:03:d3:
                    1d:78:7a:fe:fe:5e:db:93:45:fb:d9:23:c3:24:6b:
                    69:6f:a9:7c:7b:3a:03:6e:f8:3e:c6:0c:f5:e5:b8:
                    23:94:09:7e:1f:39:f9:6b:42:55:d8:4e:0e:0c:76:
                    ec:93
                Exponent: 65537 (0x10001)
        X509v3 extensions:
            X509v3 Basic Constraints: 
                CA:FALSE
            X509v3 Subject Key Identifier: 
                2B:30:E7:FC:E3:AB:B1:8D:7E:D2:E9:CC:63:6C:51:0E:CA:AC:A3:48
            X509v3 Authority Key Identifier: 
                keyid:BA:31:3C:4E:32:3B:7D:07:64:7F:2D:38:DB:9B:08:AB:A0:F9:B6:24
                DirName:/CN=rasvpn
                serial:0C:6A:9D:46:59:2B:DE:A9:AD:31:1B:E1:F5:36:0A:42:9C:BF:84:DC

            X509v3 Extended Key Usage: 
                TLS Web Client Authentication
            X509v3 Key Usage: 
                Digital Signature
    Signature Algorithm: sha256WithRSAEncryption
         5a:39:e3:ae:1e:c6:24:58:a6:11:63:3d:71:a6:3a:b2:02:d3:
         c2:11:f2:74:5d:5a:cd:6e:44:1b:0b:2a:1e:8d:19:ec:b7:39:
         68:0b:7b:38:57:55:d1:85:11:ac:8d:72:0c:54:30:d0:58:4e:
         df:39:94:43:1a:ff:b7:f6:e0:e7:8e:eb:4b:e0:a5:04:9b:49:
         56:96:8d:b0:9c:0e:9f:cc:29:f4:87:b2:9e:38:90:18:6c:39:
         9b:cf:1d:2f:7e:41:2d:1a:24:66:5e:d0:2c:96:bc:a9:55:a4:
         56:f7:56:4f:5a:5d:6b:19:bb:eb:73:ad:56:88:a1:cd:09:73:
         5e:fe:a8:ce:ba:b9:c1:eb:8f:fb:8a:c3:bf:f8:db:65:bb:69:
         cf:fb:7e:48:b4:c2:a7:28:c9:85:2f:05:32:c0:9e:1d:a7:d0:
         88:c8:e3:10:99:06:3c:a6:ee:0a:6c:26:c6:19:d8:c6:fb:bc:
         75:67:96:17:c8:7b:8b:9f:16:17:42:47:c6:3e:28:09:4f:c3:
         80:c0:a4:e6:48:50:47:13:f8:ab:ce:5e:fd:1f:5f:98:63:92:
         69:7d:3f:f0:d5:aa:94:37:41:62:bb:b9:1e:55:3d:3f:0b:e1:
         34:29:8f:33:0b:8d:5f:52:44:f3:76:82:d9:e5:01:37:3c:cd:
         fe:99:aa:20
-----BEGIN CERTIFICATE-----
MIIDSzCCAjOgAwIBAgIRAMDI+GSRGENS9TaLRhzxowEwDQYJKoZIhvcNAQELBQAw
ETEPMA0GA1UEAwwGcmFzdnBuMB4XDTIzMTAyMjA5MzMzNVoXDTI2MDEyNDA5MzMz
NVowETEPMA0GA1UEAwwGY2xpZW50MIIBIjANBgkqhkiG9w0BAQEFAAOCAQ8AMIIB
CgKCAQEAn3Om6Eihe9qz04R9lCG0FiPgPvRWjXX6b6Fb7j4b9a8hlSEK5AeObGIk
wstGVaOsQxEoi6AQACZrI3VN312yg5zaqfoZqByo4n1vFNQ9DTd2CyVlNjpvlcdX
8wPfZWnX0vrMfDWY8IlG8QPC2Trn+6L3o0QpF7+eB/UPJGfFcKpT13LKwEyFOGyp
h2OLDX8tUUVJEnaWBFsD/+FmjCaNZ1Dqy4lEiHj//TV3DZnijDSlxMci0/gGunDc
MBJHNOLhtvTOYOZ4xaWzBC3zgwIlA9MdeHr+/l7bk0X72SPDJGtpb6l8ezoDbvg+
xgz15bgjlAl+Hzn5a0JV2E4ODHbskwIDAQABo4GdMIGaMAkGA1UdEwQCMAAwHQYD
VR0OBBYEFCsw5/zjq7GNftLpzGNsUQ7KrKNIMEwGA1UdIwRFMEOAFLoxPE4yO30H
ZH8tONubCKug+bYkoRWkEzARMQ8wDQYDVQQDDAZyYXN2cG6CFAxqnUZZK96prTEb
4fU2CkKcv4TcMBMGA1UdJQQMMAoGCCsGAQUFBwMCMAsGA1UdDwQEAwIHgDANBgkq
hkiG9w0BAQsFAAOCAQEAWjnjrh7GJFimEWM9caY6sgLTwhHydF1azW5EGwsqHo0Z
7Lc5aAt7OFdV0YURrI1yDFQw0FhO3zmUQxr/t/bg547rS+ClBJtJVpaNsJwOn8wp
9IeynjiQGGw5m88dL35BLRokZl7QLJa8qVWkVvdWT1pdaxm763OtVoihzQlzXv6o
zrq5weuP+4rDv/jbZbtpz/t+SLTCpyjJhS8FMsCeHafQiMjjEJkGPKbuCmwmxhnY
xvu8dWeWF8h7i58WF0JHxj4oCU/DgMCk5khQRxP4q85e/R9fmGOSaX0/8NWqlDdB
Yru5HlU9PwvhNCmPMwuNX1JE83aC2eUBNzzN/pmqIA==
-----END CERTIFICATE-----
