Certificate:
    Data:
        Version: 3 (0x2)
        Serial Number:
            b7:3b:9b:16:0a:64:cb:4e:13:39:1f:3b:fd:d1:84:16
        Signature Algorithm: sha256WithRSAEncryption
        Issuer: CN=rasvpn
        Validity
            Not Before: Oct 22 18:00:21 2023 GMT
            Not After : Jan 24 18:00:21 2026 GMT
        Subject: CN=client
        Subject Public Key Info:
            Public Key Algorithm: rsaEncryption
                RSA Public-Key: (2048 bit)
                Modulus:
                    00:eb:51:11:ed:cd:a6:f7:98:86:32:3a:1b:c9:54:
                    37:dd:0c:64:e2:de:5c:c5:04:9a:7b:ad:57:95:61:
                    8a:77:56:de:a8:c6:e1:9b:66:73:a5:4f:b8:9f:ca:
                    04:6f:57:96:8a:25:31:bf:0b:3a:c1:fd:32:7f:07:
                    3f:09:b6:2a:cd:2b:37:42:05:0c:d8:69:7f:1a:32:
                    6c:0f:d7:43:af:8c:eb:90:b7:76:67:47:c5:79:be:
                    aa:d0:78:ae:1d:79:4c:3a:6a:29:83:43:5a:f7:ea:
                    7d:f7:e4:94:eb:cd:a9:87:24:8d:8b:e7:35:cf:4d:
                    25:79:f7:10:5a:cd:48:0e:bd:7f:25:1d:81:f4:a8:
                    e5:0b:3b:c2:3d:d4:1b:88:c0:1b:ac:59:70:8b:21:
                    aa:83:ad:8b:c3:0f:7a:70:f3:eb:5e:4d:1c:83:88:
                    bc:24:fa:46:1c:a8:88:1a:ab:30:ec:8a:a9:5b:c0:
                    7c:9d:b7:c5:2f:9f:4d:f1:03:1b:f4:5b:1c:9c:b1:
                    cb:ff:96:9d:b4:41:2c:c7:b1:1d:9c:65:6b:31:b7:
                    66:c7:81:06:92:c9:ef:11:14:e2:98:c7:bc:39:9a:
                    1f:98:27:53:37:f9:f9:f2:3b:a6:a6:2f:9b:82:f6:
                    9f:04:ee:7d:f3:57:96:ba:89:56:ac:cc:bb:12:c2:
                    3b:5d
                Exponent: 65537 (0x10001)
        X509v3 extensions:
            X509v3 Basic Constraints: 
                CA:FALSE
            X509v3 Subject Key Identifier: 
                30:93:B2:77:64:17:07:CA:F5:B3:E2:FF:D6:A1:10:42:03:CB:D7:E4
            X509v3 Authority Key Identifier: 
                keyid:E5:F4:0A:2E:3A:EF:47:5D:7C:14:E2:34:E4:FE:83:6E:C1:66:9E:69
                DirName:/CN=rasvpn
                serial:7B:0F:87:3C:4C:23:7A:C0:67:68:8E:E7:77:CB:C9:22:04:69:CF:C8

            X509v3 Extended Key Usage: 
                TLS Web Client Authentication
            X509v3 Key Usage: 
                Digital Signature
    Signature Algorithm: sha256WithRSAEncryption
         79:9a:2f:9c:58:62:24:6b:bb:34:36:e6:1a:d9:eb:8b:78:e1:
         f5:d5:3d:4a:8a:01:35:c7:fe:08:9f:9f:2d:d4:b8:4b:27:36:
         88:5e:23:5f:06:12:a6:a8:c9:04:6f:b5:11:17:a5:d6:d2:37:
         56:04:9f:8d:b6:ea:29:78:42:cb:0e:99:ea:30:dd:65:1b:3a:
         ce:3b:a6:d4:ce:b3:3c:49:b7:6a:51:14:70:a8:51:38:79:c7:
         58:cc:db:7b:ae:d6:22:f7:89:76:a5:d3:0c:c3:f5:bc:2c:6f:
         26:2a:5c:d5:f3:17:cf:c7:57:ce:58:0f:a6:fe:20:08:3f:34:
         eb:b2:22:02:dd:80:f4:6d:b3:84:17:a1:c9:66:4b:97:80:f5:
         a0:71:79:7a:1a:f9:aa:fd:6a:46:f3:ee:3c:af:35:e6:7d:0a:
         96:82:6c:98:4e:66:8d:62:38:1f:68:43:a6:4f:35:5c:b1:36:
         e2:93:98:72:2c:ac:7c:c4:c4:94:c9:db:1a:44:32:63:05:86:
         6a:29:c2:ef:df:01:61:99:ae:be:80:fa:08:21:85:1d:99:1b:
         b1:41:6e:44:5c:5e:85:5f:bd:88:2c:a5:ec:cd:ac:13:2c:6a:
         80:de:f9:74:f0:52:98:6a:8f:c2:94:d7:4b:d7:ba:2e:53:77:
         4b:4b:62:5f
-----BEGIN CERTIFICATE-----
MIIDSzCCAjOgAwIBAgIRALc7mxYKZMtOEzkfO/3RhBYwDQYJKoZIhvcNAQELBQAw
ETEPMA0GA1UEAwwGcmFzdnBuMB4XDTIzMTAyMjE4MDAyMVoXDTI2MDEyNDE4MDAy
MVowETEPMA0GA1UEAwwGY2xpZW50MIIBIjANBgkqhkiG9w0BAQEFAAOCAQ8AMIIB
CgKCAQEA61ER7c2m95iGMjobyVQ33Qxk4t5cxQSae61XlWGKd1beqMbhm2ZzpU+4
n8oEb1eWiiUxvws6wf0yfwc/CbYqzSs3QgUM2Gl/GjJsD9dDr4zrkLd2Z0fFeb6q
0HiuHXlMOmopg0Na9+p99+SU682phySNi+c1z00lefcQWs1IDr1/JR2B9KjlCzvC
PdQbiMAbrFlwiyGqg62Lww96cPPrXk0cg4i8JPpGHKiIGqsw7IqpW8B8nbfFL59N
8QMb9FscnLHL/5adtEEsx7EdnGVrMbdmx4EGksnvERTimMe8OZofmCdTN/n58jum
pi+bgvafBO5981eWuolWrMy7EsI7XQIDAQABo4GdMIGaMAkGA1UdEwQCMAAwHQYD
VR0OBBYEFDCTsndkFwfK9bPi/9ahEEIDy9fkMEwGA1UdIwRFMEOAFOX0Ci4670dd
fBTiNOT+g27BZp5poRWkEzARMQ8wDQYDVQQDDAZyYXN2cG6CFHsPhzxMI3rAZ2iO
53fLySIEac/IMBMGA1UdJQQMMAoGCCsGAQUFBwMCMAsGA1UdDwQEAwIHgDANBgkq
hkiG9w0BAQsFAAOCAQEAeZovnFhiJGu7NDbmGtnri3jh9dU9SooBNcf+CJ+fLdS4
Syc2iF4jXwYSpqjJBG+1ERel1tI3VgSfjbbqKXhCyw6Z6jDdZRs6zjum1M6zPEm3
alEUcKhROHnHWMzbe67WIveJdqXTDMP1vCxvJipc1fMXz8dXzlgPpv4gCD8067Ii
At2A9G2zhBehyWZLl4D1oHF5ehr5qv1qRvPuPK815n0KloJsmE5mjWI4H2hDpk81
XLE24pOYciysfMTElMnbGkQyYwWGainC798BYZmuvoD6CCGFHZkbsUFuRFxehV+9
iCyl7M2sEyxqgN75dPBSmGqPwpTXS9e6LlN3S0tiXw==
-----END CERTIFICATE-----
